target datalayout = "e-m:e-p270:32:32-p271:32:32-p272:64:64-i64:64-i128:128-f80:128-n8:16:32:64-S128"
target triple = "x86_64-pc-linux-gnu"

%struct.evp_aead_ctx_st = type { ptr, ptr }
%struct.AEAD_SSL3_CTX = type { %struct.evp_cipher_ctx_st, %struct.env_md_ctx_st }
%struct.evp_cipher_ctx_st = type { ptr, ptr, ptr, i32, i32, i32, [16 x i8], [16 x i8], [32 x i8], i32, i32, i32, i32, [32 x i8] }
%struct.env_md_ctx_st = type { ptr, ptr, ptr, ptr }

; Function Attrs: nounwind uwtable
define internal i32 @aead_ssl3_get_rc4_state(ptr noundef %0, ptr noundef %1) #0 {
  %3 = alloca i32, align 4
  %4 = alloca ptr, align 8
  %5 = alloca ptr, align 8
  %6 = alloca ptr, align 8
  %7 = alloca i32, align 4
  store ptr %0, ptr %4, align 8, !tbaa !6
  store ptr %1, ptr %5, align 8, !tbaa !33
  call void @llvm.lifetime.start.p0(i64 8, ptr %6) #6
  %8 = load ptr, ptr %4, align 8, !tbaa !6
  %9 = getelementptr inbounds nuw %struct.evp_aead_ctx_st, ptr %8, i32 0, i32 1
  %10 = load ptr, ptr %9, align 8, !tbaa !17
  store ptr %10, ptr %6, align 8, !tbaa !20
  %11 = load ptr, ptr %6, align 8, !tbaa !20
  %12 = getelementptr inbounds nuw %struct.AEAD_SSL3_CTX, ptr %11, i32 0, i32 0
  %13 = call ptr @EVP_CIPHER_CTX_cipher(ptr noundef %12)
  %14 = call ptr @EVP_rc4()
  %15 = icmp ne ptr %13, %14
  br i1 %15, label %16, label %17

16:                                               ; preds = %2
  store i32 0, ptr %3, align 4
  store i32 1, ptr %7, align 4
  br label %23

17:                                               ; preds = %2
  %18 = load ptr, ptr %6, align 8, !tbaa !20
  %19 = getelementptr inbounds nuw %struct.AEAD_SSL3_CTX, ptr %18, i32 0, i32 0
  %20 = getelementptr inbounds nuw %struct.evp_cipher_ctx_st, ptr %19, i32 0, i32 2
  %21 = load ptr, ptr %20, align 8, !tbaa !35
  %22 = load ptr, ptr %5, align 8, !tbaa !33
  store ptr %21, ptr %22, align 8, !tbaa !36
  store i32 1, ptr %3, align 4
  store i32 1, ptr %7, align 4
  br label %23

23:                                               ; preds = %17, %16
  call void @llvm.lifetime.end.p0(i64 8, ptr %6) #6
  %24 = load i32, ptr %3, align 4
  ret i32 %24
}